target datalayout = "e-m:e-p270:32:32-p271:32:32-p272:64:64-i64:64-i128:128-f80:128-n8:16:32:64-S128"
target triple = "x86_64-pc-linux-gnu"

%struct.darktable_t = type { %struct.dt_codepath_t, i32, i32, ptr, ptr, ptr, ptr, ptr, ptr, ptr, ptr, ptr, ptr, ptr, ptr, ptr, ptr, ptr, ptr, ptr, ptr, ptr, ptr, ptr, ptr, ptr, ptr, ptr, ptr, ptr, [64 x %struct.dt_pthread_mutex_t], %struct.dt_pthread_mutex_t, %struct.dt_pthread_mutex_t, %struct.dt_pthread_mutex_t, %struct.dt_pthread_mutex_t, %struct.dt_pthread_mutex_t, ptr, ptr, ptr, ptr, ptr, ptr, ptr, ptr, ptr, ptr, ptr, ptr, ptr, %struct.dt_lua_state_t, ptr, double, ptr, i32, [47 x i32], i32, i32, ptr, ptr, %struct.dt_sys_resources_t, %struct.dt_backthumb_t, %struct.dt_gimp_t }
%struct.dt_codepath_t = type { i8, [3 x i8] }
%struct.dt_pthread_mutex_t = type { %union.pthread_mutex_t }
%union.pthread_mutex_t = type { %struct.__pthread_mutex_s }
%struct.__pthread_mutex_s = type { i32, i32, i32, i32, i32, i16, i16, %struct.__pthread_internal_list }
%struct.__pthread_internal_list = type { ptr, ptr }
%struct.dt_lua_state_t = type { i32 }
%struct.dt_sys_resources_t = type { i64, i64, ptr, ptr, i32 }
%struct.dt_backthumb_t = type { double, double, i32, i32, i32, i32 }
%struct.dt_gimp_t = type { i32, ptr, ptr, i32, i32 }
%struct.dt_gui_gtk_t = type { ptr, %struct.dt_gui_widgets_t, %struct.dt_gui_scrollbars_t, i32, ptr, i32, [39 x %struct._GdkRGBA], i32, i32, i32, i32, i32, double, double, double, double, ptr, double, double, double, double, i32, i32, [4096 x i8], i32, i32, i32, %struct.dt_pthread_mutex_t }
%struct.dt_gui_widgets_t = type { ptr, ptr, ptr, ptr, i32, i32, i32 }
%struct.dt_gui_scrollbars_t = type { ptr, ptr, i32 }
%struct._GdkRGBA = type { double, double, double, double }

@darktable = external global %struct.darktable_t, align 8
@.str = private unnamed_addr constant [13 x i8] c"local-dialog\00", align 1
@.str.2 = private unnamed_addr constant [1 x i8] zeroinitializer, align 1
@.str.3 = private unnamed_addr constant [4 x i8] c"\E2\97\8F\00", align 1
@.str.4 = private unnamed_addr constant [31 x i8] c"this setting has been modified\00", align 1
@.str.5 = private unnamed_addr constant [23 x i8] c"preference_non_default\00", align 1
@.str.8 = private unnamed_addr constant [9 x i8] c"response\00", align 1
@.str.12 = private unnamed_addr constant [19 x i8] c"button-press-event\00", align 1
@.str.15 = private unnamed_addr constant [14 x i8] c"value-changed\00", align 1
@.str.19 = private unnamed_addr constant [35 x i8] c"number of collections to be stored\00", align 1
@.str.20 = private unnamed_addr constant [30 x i8] c"double click to reset to `%d'\00", align 1
@.str.21 = private unnamed_addr constant [64 x i8] c"the number of recent collections to store and show in this list\00", align 1
@.str.29 = private unnamed_addr constant [43 x i8] c"plugins/lighttable/recentcollect/max_items\00", align 1

; Function Attrs: nounwind uwtable
define ptr @dt_prefs_init_dialog_recentcollect(ptr noundef %0) #0 {
  %2 = alloca ptr, align 8
  %3 = alloca ptr, align 8
  %4 = alloca ptr, align 8
  %5 = alloca ptr, align 8
  %6 = alloca ptr, align 8
  %7 = alloca ptr, align 8
  %8 = alloca i32, align 4
  %9 = alloca [1024 x i8], align 16
  %10 = alloca ptr, align 8
  %11 = alloca i32, align 4
  %12 = alloca ptr, align 8
  %13 = alloca i32, align 4
  %14 = alloca i32, align 4
  %15 = alloca float, align 4
  %16 = alloca double, align 8
  store ptr %0, ptr %2, align 8, !tbaa !6
  call void @llvm.lifetime.start.p0(i64 8, ptr %3) #10
  call void @llvm.lifetime.start.p0(i64 8, ptr %4) #10
  call void @llvm.lifetime.start.p0(i64 8, ptr %5) #10
  call void @llvm.lifetime.start.p0(i64 8, ptr %6) #10
  %17 = call ptr @gtk_grid_new()
  store ptr %17, ptr %6, align 8, !tbaa !6
  call void @llvm.lifetime.start.p0(i64 8, ptr %7) #10
  %18 = call ptr @gtk_size_group_new(i32 noundef 3)
  store ptr %18, ptr %7, align 8, !tbaa !11
  %19 = load ptr, ptr %6, align 8, !tbaa !6
  %20 = call i64 @gtk_grid_get_type() #11
  %21 = call ptr @g_type_check_instance_cast(ptr noundef %19, i64 noundef %20)
  %22 = load ptr, ptr getelementptr inbounds nuw (%struct.darktable_t, ptr @darktable, i32 0, i32 14), align 8, !tbaa !13
  %23 = getelementptr inbounds nuw %struct.dt_gui_gtk_t, ptr %22, i32 0, i32 18
  %24 = load double, ptr %23, align 8, !tbaa !52
  %25 = fmul reassoc nsz arcp contract afn double 3.000000e+00, %24
  %26 = fptoui double %25 to i32
  call void @gtk_grid_set_row_spacing(ptr noundef %21, i32 noundef %26)
  %27 = load ptr, ptr %6, align 8, !tbaa !6
  %28 = call i64 @gtk_grid_get_type() #11
  %29 = call ptr @g_type_check_instance_cast(ptr noundef %27, i64 noundef %28)
  %30 = load ptr, ptr getelementptr inbounds nuw (%struct.darktable_t, ptr @darktable, i32 0, i32 14), align 8, !tbaa !13
  %31 = getelementptr inbounds nuw %struct.dt_gui_gtk_t, ptr %30, i32 0, i32 18
  %32 = load double, ptr %31, align 8, !tbaa !52
  %33 = fmul reassoc nsz arcp contract afn double 5.000000e+00, %32
  %34 = fptoui double %33 to i32
  call void @gtk_grid_set_column_spacing(ptr noundef %29, i32 noundef %34)
  %35 = load ptr, ptr %6, align 8, !tbaa !6
  call void @gtk_widget_set_valign(ptr noundef %35, i32 noundef 1)
  call void @llvm.lifetime.start.p0(i64 4, ptr %8) #10
  store i32 0, ptr %8, align 4, !tbaa !57
  call void @llvm.lifetime.start.p0(i64 1024, ptr %9) #10
  call void @llvm.lifetime.start.p0(i64 8, ptr %10) #10
  %36 = load ptr, ptr %2, align 8, !tbaa !6
  %37 = call i64 @gtk_dialog_get_type() #11
  %38 = call ptr @g_type_check_instance_cast(ptr noundef %36, i64 noundef %37)
  %39 = call ptr @gtk_dialog_get_content_area(ptr noundef %38)
  store ptr %39, ptr %10, align 8, !tbaa !6
  %40 = load ptr, ptr %2, align 8, !tbaa !6
  %41 = call ptr @g_type_check_instance_cast(ptr noundef %40, i64 noundef 80)
  call void @g_object_set_data(ptr noundef %41, ptr noundef @.str, ptr noundef inttoptr (i64 1 to ptr))
  call void @llvm.lifetime.start.p0(i64 4, ptr %11) #10
  %42 = call i32 @dt_conf_is_default(ptr noundef @.str.29)
  store i32 %42, ptr %11, align 4, !tbaa !57
  call void @llvm.lifetime.start.p0(i64 8, ptr %12) #10
  %43 = load i32, ptr %11, align 4, !tbaa !57
  %44 = icmp ne i32 %43, 0
  br i1 %44, label %45, label %47

45:                                               ; preds = %1
  %46 = call ptr @gtk_label_new(ptr noundef @.str.2)
  store ptr %46, ptr %12, align 8, !tbaa !6
  br label %51

47:                                               ; preds = %1
  %48 = call ptr @gtk_label_new(ptr noundef @.str.3)
  store ptr %48, ptr %12, align 8, !tbaa !6
  %49 = load ptr, ptr %12, align 8, !tbaa !6
  %50 = call ptr @dcgettext(ptr noundef null, ptr noundef @.str.4, i32 noundef 5) #10
  call void @gtk_widget_set_tooltip_text(ptr noundef %49, ptr noundef %50)
  br label %51

51:                                               ; preds = %47, %45
  %52 = load ptr, ptr %12, align 8, !tbaa !6
  call void @gtk_widget_set_name(ptr noundef %52, ptr noundef @.str.5)
  %53 = call ptr @dcgettext(ptr noundef null, ptr noundef @.str.19, i32 noundef 5) #10
  %54 = call ptr @gtk_label_new_with_mnemonic(ptr noundef %53)
  store ptr %54, ptr %4, align 8, !tbaa !6
  %55 = load ptr, ptr %4, align 8, !tbaa !6
  %56 = call i64 @gtk_label_get_type() #11
  %57 = call ptr @g_type_check_instance_cast(ptr noundef %55, i64 noundef %56)
  call void @gtk_label_set_xalign(ptr noundef %57, float noundef 0.000000e+00)
  %58 = call ptr @gtk_event_box_new()
  store ptr %58, ptr %5, align 8, !tbaa !6
  %59 = load ptr, ptr %5, align 8, !tbaa !6
  call void @gtk_widget_add_events(ptr noundef %59, i32 noundef 256)
  %60 = load ptr, ptr %5, align 8, !tbaa !6
  %61 = call i64 @gtk_container_get_type() #11
  %62 = call ptr @g_type_check_instance_cast(ptr noundef %60, i64 noundef %61)
  %63 = load ptr, ptr %4, align 8, !tbaa !6
  call void @gtk_container_add(ptr noundef %62, ptr noundef %63)
  call void @llvm.lifetime.start.p0(i64 4, ptr %13) #10
  store i32 -2147483648, ptr %13, align 4, !tbaa !57
  call void @llvm.lifetime.start.p0(i64 4, ptr %14) #10
  store i32 2147483647, ptr %14, align 4, !tbaa !57
  store i32 1, ptr %13, align 4, !tbaa !57
  store i32 50, ptr %14, align 4, !tbaa !57
  call void @llvm.lifetime.start.p0(i64 4, ptr %15) #10
  store float 1.000000e+00, ptr %15, align 4, !tbaa !58
  call void @llvm.lifetime.start.p0(i64 8, ptr %16) #10
  %64 = load i32, ptr %13, align 4, !tbaa !57
  %65 = sitofp i32 %64 to double
  %66 = load float, ptr %15, align 4, !tbaa !58
  %67 = fpext reassoc nsz arcp contract afn float %66 to double
  %68 = fmul reassoc nsz arcp contract afn double %65, %67
  store double %68, ptr %16, align 8, !tbaa !60
  %69 = load double, ptr %16, align 8, !tbaa !60
  %70 = fptosi double %69 to i32
  store i32 %70, ptr %13, align 4, !tbaa !57
  %71 = load i32, ptr %14, align 4, !tbaa !57
  %72 = sitofp i32 %71 to double
  %73 = load float, ptr %15, align 4, !tbaa !58
  %74 = fpext reassoc nsz arcp contract afn float %73 to double
  %75 = fmul reassoc nsz arcp contract afn double %72, %74
  store double %75, ptr %16, align 8, !tbaa !60
  %76 = load double, ptr %16, align 8, !tbaa !60
  %77 = fptosi double %76 to i32
  store i32 %77, ptr %14, align 4, !tbaa !57
  %78 = load i32, ptr %13, align 4, !tbaa !57
  %79 = sitofp i32 %78 to double
  %80 = load i32, ptr %14, align 4, !tbaa !57
  %81 = sitofp i32 %80 to double
  %82 = call ptr @gtk_spin_button_new_with_range(double noundef %79, double noundef %81, double noundef 1.000000e+00)
  store ptr %82, ptr %3, align 8, !tbaa !6
  %83 = load ptr, ptr %3, align 8, !tbaa !6
  call void @gtk_widget_set_halign(ptr noundef %83, i32 noundef 1)
  %84 = load ptr, ptr %7, align 8, !tbaa !11
  %85 = load ptr, ptr %3, align 8, !tbaa !6
  call void @gtk_size_group_add_widget(ptr noundef %84, ptr noundef %85)
  %86 = load ptr, ptr %3, align 8, !tbaa !6
  %87 = call i64 @gtk_spin_button_get_type() #11
  %88 = call ptr @g_type_check_instance_cast(ptr noundef %86, i64 noundef %87)
  call void @gtk_spin_button_set_digits(ptr noundef %88, i32 noundef 0)
  %89 = load ptr, ptr %3, align 8, !tbaa !6
  %90 = call i64 @gtk_spin_button_get_type() #11
  %91 = call ptr @g_type_check_instance_cast(ptr noundef %89, i64 noundef %90)
  %92 = call i32 @dt_conf_get_int(ptr noundef @.str.29)
  %93 = sitofp i32 %92 to float
  %94 = load float, ptr %15, align 4, !tbaa !58
  %95 = fmul reassoc nsz arcp contract afn float %93, %94
  %96 = fpext reassoc nsz arcp contract afn float %95 to double
  call void @gtk_spin_button_set_value(ptr noundef %91, double noundef %96)
  %97 = load ptr, ptr %3, align 8, !tbaa !6
  %98 = call ptr @g_type_check_instance_cast(ptr noundef %97, i64 noundef 80)
  %99 = load ptr, ptr %12, align 8, !tbaa !6
  %100 = call i64 @g_signal_connect_data(ptr noundef %98, ptr noundef @.str.15, ptr noundef @preferences_changed_callback_idm398, ptr noundef %99, ptr noundef null, i32 noundef 0)
  %101 = load ptr, ptr %2, align 8, !tbaa !6
  %102 = call ptr @g_type_check_instance_cast(ptr noundef %101, i64 noundef 80)
  %103 = load ptr, ptr %3, align 8, !tbaa !6
  %104 = call i64 @g_signal_connect_data(ptr noundef %102, ptr noundef @.str.8, ptr noundef @preferences_response_callback_idm398, ptr noundef %103, ptr noundef null, i32 noundef 0)
  %105 = getelementptr inbounds [1024 x i8], ptr %9, i64 0, i64 0
  %106 = call ptr @dcgettext(ptr noundef null, ptr noundef @.str.20, i32 noundef 5) #10
  %107 = load float, ptr %15, align 4, !tbaa !58
  %108 = fmul reassoc nsz arcp contract afn float 1.000000e+01, %107
  %109 = fptosi float %108 to i32
  %110 = call i32 (ptr, i64, ptr, ...) @snprintf(ptr noundef %105, i64 noundef 1024, ptr noundef %106, i32 noundef %109) #10
  %111 = load ptr, ptr %5, align 8, !tbaa !6
  %112 = getelementptr inbounds [1024 x i8], ptr %9, i64 0, i64 0
  call void @gtk_widget_set_tooltip_text(ptr noundef %111, ptr noundef %112)
  %113 = load ptr, ptr %5, align 8, !tbaa !6
  %114 = call i64 @gtk_event_box_get_type() #11
  %115 = call ptr @g_type_check_instance_cast(ptr noundef %113, i64 noundef %114)
  call void @gtk_event_box_set_visible_window(ptr noundef %115, i32 noundef 0)
  %116 = load ptr, ptr %3, align 8, !tbaa !6
  %117 = call ptr @dcgettext(ptr noundef null, ptr noundef @.str.21, i32 noundef 5) #10
  call void @gtk_widget_set_tooltip_text(ptr noundef %116, ptr noundef %117)
  %118 = load ptr, ptr %3, align 8, !tbaa !6
  call void @gtk_widget_set_name(ptr noundef %118, ptr noundef @.str.29)
  %119 = load ptr, ptr %6, align 8, !tbaa !6
  %120 = call i64 @gtk_grid_get_type() #11
  %121 = call ptr @g_type_check_instance_cast(ptr noundef %119, i64 noundef %120)
  %122 = load ptr, ptr %5, align 8, !tbaa !6
  %123 = load i32, ptr %8, align 4, !tbaa !57
  call void @gtk_grid_attach(ptr noundef %121, ptr noundef %122, i32 noundef 0, i32 noundef %123, i32 noundef 1, i32 noundef 1)
  %124 = load ptr, ptr %6, align 8, !tbaa !6
  %125 = call i64 @gtk_grid_get_type() #11
  %126 = call ptr @g_type_check_instance_cast(ptr noundef %124, i64 noundef %125)
  %127 = load ptr, ptr %12, align 8, !tbaa !6
  %128 = load i32, ptr %8, align 4, !tbaa !57
  call void @gtk_grid_attach(ptr noundef %126, ptr noundef %127, i32 noundef 1, i32 noundef %128, i32 noundef 1, i32 noundef 1)
  %129 = load ptr, ptr %6, align 8, !tbaa !6
  %130 = call i64 @gtk_grid_get_type() #11
  %131 = call ptr @g_type_check_instance_cast(ptr noundef %129, i64 noundef %130)
  %132 = load ptr, ptr %3, align 8, !tbaa !6
  %133 = load i32, ptr %8, align 4, !tbaa !57
  %134 = add nsw i32 %133, 1
  store i32 %134, ptr %8, align 4, !tbaa !57
  call void @gtk_grid_attach(ptr noundef %131, ptr noundef %132, i32 noundef 2, i32 noundef %133, i32 noundef 1, i32 noundef 1)
  %135 = load ptr, ptr %4, align 8, !tbaa !6
  %136 = call i64 @gtk_label_get_type() #11
  %137 = call ptr @g_type_check_instance_cast(ptr noundef %135, i64 noundef %136)
  %138 = load ptr, ptr %3, align 8, !tbaa !6
  call void @gtk_label_set_mnemonic_widget(ptr noundef %137, ptr noundef %138)
  %139 = load ptr, ptr %5, align 8, !tbaa !6
  %140 = call ptr @g_type_check_instance_cast(ptr noundef %139, i64 noundef 80)
  %141 = load ptr, ptr %3, align 8, !tbaa !6
  %142 = call i64 @g_signal_connect_data(ptr noundef %140, ptr noundef @.str.12, ptr noundef @reset_widget_idm398, ptr noundef %141, ptr noundef null, i32 noundef 0)
  call void @llvm.lifetime.end.p0(i64 8, ptr %16) #10
  call void @llvm.lifetime.end.p0(i64 4, ptr %15) #10
  call void @llvm.lifetime.end.p0(i64 4, ptr %14) #10
  call void @llvm.lifetime.end.p0(i64 4, ptr %13) #10
  call void @llvm.lifetime.end.p0(i64 8, ptr %12) #10
  call void @llvm.lifetime.end.p0(i64 4, ptr %11) #10
  %143 = load ptr, ptr %7, align 8, !tbaa !11
  call void @g_object_unref(ptr noundef %143)
  %144 = load ptr, ptr %10, align 8, !tbaa !6
  %145 = call i64 @gtk_box_get_type() #11
  %146 = call ptr @g_type_check_instance_cast(ptr noundef %144, i64 noundef %145)
  %147 = load ptr, ptr %6, align 8, !tbaa !6
  call void @gtk_box_pack_start(ptr noundef %146, ptr noundef %147, i32 noundef 0, i32 noundef 0, i32 noundef 0)
  %148 = load ptr, ptr %6, align 8, !tbaa !6
  call void @llvm.lifetime.end.p0(i64 8, ptr %10) #10
  call void @llvm.lifetime.end.p0(i64 1024, ptr %9) #10
  call void @llvm.lifetime.end.p0(i64 4, ptr %8) #10
  call void @llvm.lifetime.end.p0(i64 8, ptr %7) #10
  call void @llvm.lifetime.end.p0(i64 8, ptr %6) #10
  call void @llvm.lifetime.end.p0(i64 8, ptr %5) #10
  call void @llvm.lifetime.end.p0(i64 8, ptr %4) #10
  call void @llvm.lifetime.end.p0(i64 8, ptr %3) #10
  ret ptr %148
}