; Function Attrs: nounwind uwtable
define ptr @dt_prefs_init_dialog_recentcollect(ptr noundef %0) local_unnamed_addr #0 {
  %2 = alloca [1024 x i8], align 16
  %3 = tail call ptr @gtk_grid_new() #12
  %4 = tail call ptr @gtk_size_group_new(i32 noundef 3) #12
  %5 = tail call i64 @gtk_grid_get_type() #13
  %6 = tail call ptr @g_type_check_instance_cast(ptr noundef %3, i64 noundef %5) #12
  %7 = load ptr, ptr getelementptr inbounds nuw (i8, ptr @darktable, i64 104), align 8, !tbaa !6
  %8 = getelementptr inbounds nuw i8, ptr %7, i64 1424
  %9 = load double, ptr %8, align 8, !tbaa !48
  %10 = fmul reassoc nsz arcp contract afn double %9, 3.000000e+00
  %11 = fptoui double %10 to i32
  tail call void @gtk_grid_set_row_spacing(ptr noundef %6, i32 noundef %11) #12
  %12 = tail call ptr @g_type_check_instance_cast(ptr noundef %3, i64 noundef %5) #12
  %13 = load ptr, ptr getelementptr inbounds nuw (i8, ptr @darktable, i64 104), align 8, !tbaa !6
  %14 = getelementptr inbounds nuw i8, ptr %13, i64 1424
  %15 = load double, ptr %14, align 8, !tbaa !48
  %16 = fmul reassoc nsz arcp contract afn double %15, 5.000000e+00
  %17 = fptoui double %16 to i32
  tail call void @gtk_grid_set_column_spacing(ptr noundef %12, i32 noundef %17) #12
  tail call void @gtk_widget_set_valign(ptr noundef %3, i32 noundef 1) #12
  call void @llvm.lifetime.start.p0(i64 1024, ptr nonnull %2) #12
  %18 = tail call i64 @gtk_dialog_get_type() #13
  %19 = tail call ptr @g_type_check_instance_cast(ptr noundef %0, i64 noundef %18) #12
  %20 = tail call ptr @gtk_dialog_get_content_area(ptr noundef %19) #12
  %21 = tail call ptr @g_type_check_instance_cast(ptr noundef %0, i64 noundef 80) #12
  tail call void @g_object_set_data(ptr noundef %21, ptr noundef nonnull @.str, ptr noundef nonnull inttoptr (i64 1 to ptr)) #12
  %22 = tail call i32 @dt_conf_is_default(ptr noundef nonnull @.str.29) #12
  %.not = icmp eq i32 %22, 0
  br i1 %.not, label %25, label %23

23:                                               ; preds = %1
  %24 = tail call ptr @gtk_label_new(ptr noundef nonnull @.str.2) #12
  br label %28

25:                                               ; preds = %1
  %26 = tail call ptr @gtk_label_new(ptr noundef nonnull @.str.3) #12
  %27 = tail call ptr @dcgettext(ptr noundef null, ptr noundef nonnull @.str.4, i32 noundef 5) #12
  tail call void @gtk_widget_set_tooltip_text(ptr noundef %26, ptr noundef %27) #12
  br label %28

28:                                               ; preds = %25, %23
  %.0 = phi ptr [ %24, %23 ], [ %26, %25 ]
  tail call void @gtk_widget_set_name(ptr noundef %.0, ptr noundef nonnull @.str.5) #12
  %29 = tail call ptr @dcgettext(ptr noundef null, ptr noundef nonnull @.str.19, i32 noundef 5) #12
  %30 = tail call ptr @gtk_label_new_with_mnemonic(ptr noundef %29) #12
  %31 = tail call i64 @gtk_label_get_type() #13
  %32 = tail call ptr @g_type_check_instance_cast(ptr noundef %30, i64 noundef %31) #12
  tail call void @gtk_label_set_xalign(ptr noundef %32, float noundef 0.000000e+00) #12
  %33 = tail call ptr @gtk_event_box_new() #12
  tail call void @gtk_widget_add_events(ptr noundef %33, i32 noundef 256) #12
  %34 = tail call i64 @gtk_container_get_type() #13
  %35 = tail call ptr @g_type_check_instance_cast(ptr noundef %33, i64 noundef %34) #12
  tail call void @gtk_container_add(ptr noundef %35, ptr noundef %30) #12
  %36 = tail call ptr @gtk_spin_button_new_with_range(double noundef 1.000000e+00, double noundef 5.000000e+01, double noundef 1.000000e+00) #12
  tail call void @gtk_widget_set_halign(ptr noundef %36, i32 noundef 1) #12
  tail call void @gtk_size_group_add_widget(ptr noundef %4, ptr noundef %36) #12
  %37 = tail call i64 @gtk_spin_button_get_type() #13
  %38 = tail call ptr @g_type_check_instance_cast(ptr noundef %36, i64 noundef %37) #12
  tail call void @gtk_spin_button_set_digits(ptr noundef %38, i32 noundef 0) #12
  %39 = tail call ptr @g_type_check_instance_cast(ptr noundef %36, i64 noundef %37) #12
  %40 = tail call i32 @dt_conf_get_int(ptr noundef nonnull @.str.29) #12
  %41 = sitofp i32 %40 to float
  %42 = fpext reassoc nsz arcp contract afn float %41 to double
  tail call void @gtk_spin_button_set_value(ptr noundef %39, double noundef %42) #12
  %43 = tail call ptr @g_type_check_instance_cast(ptr noundef %36, i64 noundef 80) #12
  %44 = tail call i64 @g_signal_connect_data(ptr noundef %43, ptr noundef nonnull @.str.15, ptr noundef nonnull @preferences_changed_callback_idm398, ptr noundef %.0, ptr noundef null, i32 noundef 0) #12
  %45 = tail call ptr @g_type_check_instance_cast(ptr noundef %0, i64 noundef 80) #12
  %46 = tail call i64 @g_signal_connect_data(ptr noundef %45, ptr noundef nonnull @.str.8, ptr noundef nonnull @preferences_response_callback_idm398, ptr noundef %36, ptr noundef null, i32 noundef 0) #12
  %47 = tail call ptr @dcgettext(ptr noundef null, ptr noundef nonnull @.str.20, i32 noundef 5) #12
  %48 = call i32 (ptr, i64, ptr, ...) @snprintf(ptr noundef nonnull dereferenceable(1) %2, i64 noundef 1024, ptr noundef %47, i32 noundef 10) #12
  call void @gtk_widget_set_tooltip_text(ptr noundef %33, ptr noundef nonnull %2) #12
  %49 = tail call i64 @gtk_event_box_get_type() #13
  %50 = call ptr @g_type_check_instance_cast(ptr noundef %33, i64 noundef %49) #12
  call void @gtk_event_box_set_visible_window(ptr noundef %50, i32 noundef 0) #12
  %51 = call ptr @dcgettext(ptr noundef null, ptr noundef nonnull @.str.21, i32 noundef 5) #12
  call void @gtk_widget_set_tooltip_text(ptr noundef %36, ptr noundef %51) #12
  call void @gtk_widget_set_name(ptr noundef %36, ptr noundef nonnull @.str.29) #12
  %52 = call ptr @g_type_check_instance_cast(ptr noundef %3, i64 noundef %5) #12
  call void @gtk_grid_attach(ptr noundef %52, ptr noundef %33, i32 noundef 0, i32 noundef 0, i32 noundef 1, i32 noundef 1) #12
  %53 = call ptr @g_type_check_instance_cast(ptr noundef %3, i64 noundef %5) #12
  call void @gtk_grid_attach(ptr noundef %53, ptr noundef %.0, i32 noundef 1, i32 noundef 0, i32 noundef 1, i32 noundef 1) #12
  %54 = call ptr @g_type_check_instance_cast(ptr noundef %3, i64 noundef %5) #12
  call void @gtk_grid_attach(ptr noundef %54, ptr noundef %36, i32 noundef 2, i32 noundef 0, i32 noundef 1, i32 noundef 1) #12
  %55 = call ptr @g_type_check_instance_cast(ptr noundef %30, i64 noundef %31) #12
  call void @gtk_label_set_mnemonic_widget(ptr noundef %55, ptr noundef %36) #12
  %56 = call ptr @g_type_check_instance_cast(ptr noundef %33, i64 noundef 80) #12
  %57 = call i64 @g_signal_connect_data(ptr noundef %56, ptr noundef nonnull @.str.12, ptr noundef nonnull @reset_widget_idm398, ptr noundef %36, ptr noundef null, i32 noundef 0) #12
  call void @g_object_unref(ptr noundef %4) #12
  %58 = tail call i64 @gtk_box_get_type() #13
  %59 = call ptr @g_type_check_instance_cast(ptr noundef %20, i64 noundef %58) #12
  call void @gtk_box_pack_start(ptr noundef %59, ptr noundef %3, i32 noundef 0, i32 noundef 0, i32 noundef 0) #12
  call void @llvm.lifetime.end.p0(i64 1024, ptr nonnull %2) #12
  ret ptr %3
}